target datalayout = "e-m:e-p270:32:32-p271:32:32-p272:64:64-i64:64-i128:128-f80:128-n8:16:32:64-S128"
target triple = "x86_64-pc-linux-gnu"

%"class.gmx::ScaleCoordinates::Impl" = type { %"class.gmx::BasicVector" }
%"class.gmx::BasicVector" = type { [3 x float] }
%"class.gmx::ArrayRef" = type { %"struct.gmx::ArrayRefIter", %"struct.gmx::ArrayRefIter" }
%"struct.gmx::ArrayRefIter" = type { ptr }

; Function Attrs: mustprogress nounwind uwtable
define linkonce_odr noundef i64 @_ZNK3gmx12ArrayRefIterINS_11BasicVectorIfEEEmiES3_(ptr noundef nonnull align 8 dereferenceable(8) %0, ptr %1) #0 comdat align 2 {
  %3 = alloca %"struct.gmx::ArrayRefIter", align 8
  %4 = alloca ptr, align 8
  %5 = getelementptr inbounds %"struct.gmx::ArrayRefIter", ptr %3, i32 0, i32 0
  store ptr %1, ptr %5, align 8
  store ptr %0, ptr %4, align 8
  %6 = load ptr, ptr %4, align 8
  %7 = getelementptr inbounds %"struct.gmx::ArrayRefIter", ptr %6, i32 0, i32 0
  %8 = load ptr, ptr %7, align 8
  %9 = getelementptr inbounds %"struct.gmx::ArrayRefIter", ptr %3, i32 0, i32 0
  %10 = load ptr, ptr %9, align 8
  %11 = ptrtoint ptr %8 to i64
  %12 = ptrtoint ptr %10 to i64
  %13 = sub i64 %11, %12
  %14 = sdiv exact i64 %13, 12
  ret i64 %14
}

; Function Attrs: mustprogress nounwind uwtable
define linkonce_odr noundef i64 @_ZN3gmx5boost14stl_interfaces6detail11common_diffINS_12ArrayRefIterINS_11BasicVectorIfEEEES7_EEDTmiscNSt11conditionalIXsr3std14is_convertibleIT_T0_EE5valueESA_S9_E4typeEfp_scSC_fp0_ES9_SA_(ptr %0, ptr %1) #0 comdat {
  %3 = alloca %"struct.gmx::ArrayRefIter", align 8
  %4 = alloca %"struct.gmx::ArrayRefIter", align 8
  %5 = alloca %"struct.gmx::ArrayRefIter", align 8
  %6 = alloca %"struct.gmx::ArrayRefIter", align 8
  %7 = getelementptr inbounds %"struct.gmx::ArrayRefIter", ptr %3, i32 0, i32 0
  store ptr %0, ptr %7, align 8
  %8 = getelementptr inbounds %"struct.gmx::ArrayRefIter", ptr %4, i32 0, i32 0
  store ptr %1, ptr %8, align 8
  call void @llvm.memcpy.p0.p0.i64(ptr align 8 %5, ptr align 8 %3, i64 8, i1 false)
  call void @llvm.memcpy.p0.p0.i64(ptr align 8 %6, ptr align 8 %4, i64 8, i1 false)
  %9 = getelementptr inbounds %"struct.gmx::ArrayRefIter", ptr %6, i32 0, i32 0
  %10 = load ptr, ptr %9, align 8
  %11 = call noundef i64 @_ZNK3gmx12ArrayRefIterINS_11BasicVectorIfEEEmiES3_(ptr noundef nonnull align 8 dereferenceable(8) %5, ptr %10) #10
  ret i64 %11
}

; Function Attrs: mustprogress nounwind uwtable
define linkonce_odr noundef nonnull align 8 dereferenceable(8) ptr @_ZN3gmx12ArrayRefIterINS_11BasicVectorIfEEEpLEl(ptr noundef nonnull align 8 dereferenceable(8) %0, i64 noundef %1) #0 comdat align 2 {
  %3 = alloca ptr, align 8
  %4 = alloca i64, align 8
  store ptr %0, ptr %3, align 8
  store i64 %1, ptr %4, align 8
  %5 = load ptr, ptr %3, align 8
  %6 = load i64, ptr %4, align 8
  %7 = getelementptr inbounds %"struct.gmx::ArrayRefIter", ptr %5, i32 0, i32 0
  %8 = load ptr, ptr %7, align 8
  %9 = getelementptr inbounds %"class.gmx::BasicVector", ptr %8, i64 %6
  store ptr %9, ptr %7, align 8
  ret ptr %5
}

; Function Attrs: mustprogress nounwind uwtable
define linkonce_odr noundef nonnull align 8 dereferenceable(8) ptr @_ZN3gmx5boost14stl_interfaces2v118iterator_interfaceINS_12ArrayRefIterINS_11BasicVectorIfEEEESt26random_access_iterator_tagS6_RS6_PS6_lvE7derivedEv(ptr noundef nonnull align 1 dereferenceable(1) %0) #0 comdat align 2 {
  %2 = alloca ptr, align 8
  store ptr %0, ptr %2, align 8
  %3 = load ptr, ptr %2, align 8
  ret ptr %3
}

; Function Attrs: mustprogress nounwind uwtable
define linkonce_odr noundef zeroext i1 @_ZN3gmx5boost14stl_interfaces2v1eqINS_12ArrayRefIterINS_11BasicVectorIfEEEES7_vEEDTcmclsr6v1_dtlE16derived_iteratorfp_Eeqclsr6detailE11common_difffp_fp0_ELi0EET_T0_(ptr %0, ptr %1) #0 comdat {
  %3 = alloca %"struct.gmx::ArrayRefIter", align 8
  %4 = alloca %"struct.gmx::ArrayRefIter", align 8
  %5 = alloca %"struct.gmx::ArrayRefIter", align 8
  %6 = alloca %"struct.gmx::ArrayRefIter", align 8
  %7 = getelementptr inbounds %"struct.gmx::ArrayRefIter", ptr %3, i32 0, i32 0
  store ptr %0, ptr %7, align 8
  %8 = getelementptr inbounds %"struct.gmx::ArrayRefIter", ptr %4, i32 0, i32 0
  store ptr %1, ptr %8, align 8
  call void @llvm.memcpy.p0.p0.i64(ptr align 8 %5, ptr align 8 %3, i64 8, i1 false)
  call void @llvm.memcpy.p0.p0.i64(ptr align 8 %6, ptr align 8 %4, i64 8, i1 false)
  %9 = getelementptr inbounds %"struct.gmx::ArrayRefIter", ptr %5, i32 0, i32 0
  %10 = load ptr, ptr %9, align 8
  %11 = getelementptr inbounds %"struct.gmx::ArrayRefIter", ptr %6, i32 0, i32 0
  %12 = load ptr, ptr %11, align 8
  %13 = call noundef i64 @_ZN3gmx5boost14stl_interfaces6detail11common_diffINS_12ArrayRefIterINS_11BasicVectorIfEEEES7_EEDTmiscNSt11conditionalIXsr3std14is_convertibleIT_T0_EE5valueESA_S9_E4typeEfp_scSC_fp0_ES9_SA_(ptr %10, ptr %12) #10
  %14 = icmp eq i64 %13, 0
  ret i1 %14
}

; Function Attrs: mustprogress nounwind uwtable
define linkonce_odr noundef nonnull align 8 dereferenceable(8) ptr @_ZN3gmx5boost14stl_interfaces2v118iterator_interfaceINS_12ArrayRefIterINS_11BasicVectorIfEEEESt26random_access_iterator_tagS6_RS6_PS6_lvEppIS7_EEDTcmpLclsr3stdE7declvalIRT_EEcvlLi1Eclsr3stdE7declvalISE_EEEv(ptr noundef nonnull align 1 dereferenceable(1) %0) #0 comdat align 2 {
  %2 = alloca ptr, align 8
  store ptr %0, ptr %2, align 8
  %3 = load ptr, ptr %2, align 8
  %4 = call noundef nonnull align 8 dereferenceable(8) ptr @_ZN3gmx5boost14stl_interfaces2v118iterator_interfaceINS_12ArrayRefIterINS_11BasicVectorIfEEEESt26random_access_iterator_tagS6_RS6_PS6_lvE7derivedEv(ptr noundef nonnull align 1 dereferenceable(1) %3) #10
  %5 = call noundef nonnull align 8 dereferenceable(8) ptr @_ZN3gmx12ArrayRefIterINS_11BasicVectorIfEEEpLEl(ptr noundef nonnull align 8 dereferenceable(8) %4, i64 noundef 1) #10
  %6 = call noundef nonnull align 8 dereferenceable(8) ptr @_ZN3gmx5boost14stl_interfaces2v118iterator_interfaceINS_12ArrayRefIterINS_11BasicVectorIfEEEESt26random_access_iterator_tagS6_RS6_PS6_lvE7derivedEv(ptr noundef nonnull align 1 dereferenceable(1) %3) #10
  ret ptr %6
}

; Function Attrs: mustprogress nounwind uwtable
define linkonce_odr noundef nonnull align 4 dereferenceable(4) ptr @_ZN3gmx11BasicVectorIfEixEi(ptr noundef nonnull align 4 dereferenceable(12) %0, i32 noundef %1) #0 comdat align 2 {
  %3 = alloca ptr, align 8
  %4 = alloca i32, align 4
  store ptr %0, ptr %3, align 8
  store i32 %1, ptr %4, align 4
  %5 = load ptr, ptr %3, align 8
  %6 = getelementptr inbounds %"class.gmx::BasicVector", ptr %5, i32 0, i32 0
  %7 = load i32, ptr %4, align 4
  %8 = sext i32 %7 to i64
  %9 = getelementptr inbounds [3 x float], ptr %6, i64 0, i64 %8
  ret ptr %9
}

; Function Attrs: mustprogress nounwind uwtable
define linkonce_odr noundef float @_ZNK3gmx11BasicVectorIfEixEi(ptr noundef nonnull align 4 dereferenceable(12) %0, i32 noundef %1) #0 comdat align 2 {
  %3 = alloca ptr, align 8
  %4 = alloca i32, align 4
  store ptr %0, ptr %3, align 8
  store i32 %1, ptr %4, align 4
  %5 = load ptr, ptr %3, align 8
  %6 = getelementptr inbounds %"class.gmx::BasicVector", ptr %5, i32 0, i32 0
  %7 = load i32, ptr %4, align 4
  %8 = sext i32 %7 to i64
  %9 = getelementptr inbounds [3 x float], ptr %6, i64 0, i64 %8
  %10 = load float, ptr %9, align 4
  ret float %10
}

; Function Attrs: mustprogress nounwind uwtable
define linkonce_odr noundef nonnull align 4 dereferenceable(12) ptr @_ZNK3gmx12ArrayRefIterINS_11BasicVectorIfEEEdeEv(ptr noundef nonnull align 8 dereferenceable(8) %0) #0 comdat align 2 {
  %2 = alloca ptr, align 8
  store ptr %0, ptr %2, align 8
  %3 = load ptr, ptr %2, align 8
  %4 = getelementptr inbounds %"struct.gmx::ArrayRefIter", ptr %3, i32 0, i32 0
  %5 = load ptr, ptr %4, align 8
  ret ptr %5
}

; Function Attrs: mustprogress nounwind uwtable
define linkonce_odr noundef zeroext i1 @_ZN3gmx5boost14stl_interfaces2v1neINS_12ArrayRefIterINS_11BasicVectorIfEEEES7_EEDTcmclsr6v1_dtlE16derived_iteratorfp_Enteqfp_fp0_ET_T0_(ptr %0, ptr %1) #0 comdat {
  %3 = alloca %"struct.gmx::ArrayRefIter", align 8
  %4 = alloca %"struct.gmx::ArrayRefIter", align 8
  %5 = alloca %"struct.gmx::ArrayRefIter", align 8
  %6 = alloca %"struct.gmx::ArrayRefIter", align 8
  %7 = getelementptr inbounds %"struct.gmx::ArrayRefIter", ptr %3, i32 0, i32 0
  store ptr %0, ptr %7, align 8
  %8 = getelementptr inbounds %"struct.gmx::ArrayRefIter", ptr %4, i32 0, i32 0
  store ptr %1, ptr %8, align 8
  call void @llvm.memcpy.p0.p0.i64(ptr align 8 %5, ptr align 8 %3, i64 8, i1 false)
  call void @llvm.memcpy.p0.p0.i64(ptr align 8 %6, ptr align 8 %4, i64 8, i1 false)
  %9 = getelementptr inbounds %"struct.gmx::ArrayRefIter", ptr %5, i32 0, i32 0
  %10 = load ptr, ptr %9, align 8
  %11 = getelementptr inbounds %"struct.gmx::ArrayRefIter", ptr %6, i32 0, i32 0
  %12 = load ptr, ptr %11, align 8
  %13 = call noundef zeroext i1 @_ZN3gmx5boost14stl_interfaces2v1eqINS_12ArrayRefIterINS_11BasicVectorIfEEEES7_vEEDTcmclsr6v1_dtlE16derived_iteratorfp_Eeqclsr6detailE11common_difffp_fp0_ELi0EET_T0_(ptr %10, ptr %12) #10
  %14 = xor i1 %13, true
  ret i1 %14
}

; Function Attrs: mustprogress nounwind uwtable
define linkonce_odr ptr @_ZNK3gmx8ArrayRefINS_11BasicVectorIfEEE3endEv(ptr noundef nonnull align 8 dereferenceable(16) %0) #0 comdat align 2 {
  %2 = alloca %"struct.gmx::ArrayRefIter", align 8
  %3 = alloca ptr, align 8
  store ptr %0, ptr %3, align 8
  %4 = load ptr, ptr %3, align 8
  %5 = getelementptr inbounds %"class.gmx::ArrayRef", ptr %4, i32 0, i32 1
  call void @llvm.memcpy.p0.p0.i64(ptr align 8 %2, ptr align 8 %5, i64 8, i1 false)
  %6 = getelementptr inbounds %"struct.gmx::ArrayRefIter", ptr %2, i32 0, i32 0
  %7 = load ptr, ptr %6, align 8
  ret ptr %7
}

; Function Attrs: mustprogress nounwind uwtable
define linkonce_odr ptr @_ZNK3gmx8ArrayRefINS_11BasicVectorIfEEE5beginEv(ptr noundef nonnull align 8 dereferenceable(16) %0) #0 comdat align 2 {
  %2 = alloca %"struct.gmx::ArrayRefIter", align 8
  %3 = alloca ptr, align 8
  store ptr %0, ptr %3, align 8
  %4 = load ptr, ptr %3, align 8
  %5 = getelementptr inbounds %"class.gmx::ArrayRef", ptr %4, i32 0, i32 0
  call void @llvm.memcpy.p0.p0.i64(ptr align 8 %2, ptr align 8 %5, i64 8, i1 false)
  %6 = getelementptr inbounds %"struct.gmx::ArrayRefIter", ptr %2, i32 0, i32 0
  %7 = load ptr, ptr %6, align 8
  ret ptr %7
}

; Function Attrs: mustprogress uwtable
define void @_ZNK3gmx16ScaleCoordinates4Impl5scaleENS_8ArrayRefINS_11BasicVectorIfEEEE(ptr noundef nonnull align 4 dereferenceable(12) %0, ptr %1, ptr %2) #2 align 2 {
  %4 = alloca %"class.gmx::ArrayRef", align 8
  %5 = alloca ptr, align 8
  %6 = alloca ptr, align 8
  %7 = alloca %"struct.gmx::ArrayRefIter", align 8
  %8 = alloca %"struct.gmx::ArrayRefIter", align 8
  %9 = alloca %"struct.gmx::ArrayRefIter", align 8
  %10 = alloca %"struct.gmx::ArrayRefIter", align 8
  %11 = alloca ptr, align 8
  %12 = getelementptr inbounds { ptr, ptr }, ptr %4, i32 0, i32 0
  store ptr %1, ptr %12, align 8
  %13 = getelementptr inbounds { ptr, ptr }, ptr %4, i32 0, i32 1
  store ptr %2, ptr %13, align 8
  store ptr %0, ptr %5, align 8
  %14 = load ptr, ptr %5, align 8
  store ptr %4, ptr %6, align 8
  %15 = load ptr, ptr %6, align 8
  %16 = call ptr @_ZNK3gmx8ArrayRefINS_11BasicVectorIfEEE5beginEv(ptr noundef nonnull align 8 dereferenceable(16) %15)
  %17 = getelementptr inbounds %"struct.gmx::ArrayRefIter", ptr %7, i32 0, i32 0
  store ptr %16, ptr %17, align 8
  %18 = load ptr, ptr %6, align 8
  %19 = call ptr @_ZNK3gmx8ArrayRefINS_11BasicVectorIfEEE3endEv(ptr noundef nonnull align 8 dereferenceable(16) %18)
  %20 = getelementptr inbounds %"struct.gmx::ArrayRefIter", ptr %8, i32 0, i32 0
  store ptr %19, ptr %20, align 8
  br label %21

21:                                               ; preds = %47, %3
  call void @llvm.memcpy.p0.p0.i64(ptr align 8 %9, ptr align 8 %7, i64 8, i1 false)
  call void @llvm.memcpy.p0.p0.i64(ptr align 8 %10, ptr align 8 %8, i64 8, i1 false)
  %22 = getelementptr inbounds %"struct.gmx::ArrayRefIter", ptr %9, i32 0, i32 0
  %23 = load ptr, ptr %22, align 8
  %24 = getelementptr inbounds %"struct.gmx::ArrayRefIter", ptr %10, i32 0, i32 0
  %25 = load ptr, ptr %24, align 8
  %26 = call noundef zeroext i1 @_ZN3gmx5boost14stl_interfaces2v1neINS_12ArrayRefIterINS_11BasicVectorIfEEEES7_EEDTcmclsr6v1_dtlE16derived_iteratorfp_Enteqfp_fp0_ET_T0_(ptr %23, ptr %25) #10
  br i1 %26, label %27, label %49

27:                                               ; preds = %21
  %28 = call noundef nonnull align 4 dereferenceable(12) ptr @_ZNK3gmx12ArrayRefIterINS_11BasicVectorIfEEEdeEv(ptr noundef nonnull align 8 dereferenceable(8) %7) #10
  store ptr %28, ptr %11, align 8
  %29 = getelementptr inbounds %"class.gmx::ScaleCoordinates::Impl", ptr %14, i32 0, i32 0
  %30 = call noundef float @_ZNK3gmx11BasicVectorIfEixEi(ptr noundef nonnull align 4 dereferenceable(12) %29, i32 noundef 0)
  %31 = load ptr, ptr %11, align 8
  %32 = call noundef nonnull align 4 dereferenceable(4) ptr @_ZN3gmx11BasicVectorIfEixEi(ptr noundef nonnull align 4 dereferenceable(12) %31, i32 noundef 0)
  %33 = load float, ptr %32, align 4
  %34 = fmul float %33, %30
  store float %34, ptr %32, align 4
  %35 = getelementptr inbounds %"class.gmx::ScaleCoordinates::Impl", ptr %14, i32 0, i32 0
  %36 = call noundef float @_ZNK3gmx11BasicVectorIfEixEi(ptr noundef nonnull align 4 dereferenceable(12) %35, i32 noundef 1)
  %37 = load ptr, ptr %11, align 8
  %38 = call noundef nonnull align 4 dereferenceable(4) ptr @_ZN3gmx11BasicVectorIfEixEi(ptr noundef nonnull align 4 dereferenceable(12) %37, i32 noundef 1)
  %39 = load float, ptr %38, align 4
  %40 = fmul float %39, %36
  store float %40, ptr %38, align 4
  %41 = getelementptr inbounds %"class.gmx::ScaleCoordinates::Impl", ptr %14, i32 0, i32 0
  %42 = call noundef float @_ZNK3gmx11BasicVectorIfEixEi(ptr noundef nonnull align 4 dereferenceable(12) %41, i32 noundef 2)
  %43 = load ptr, ptr %11, align 8
  %44 = call noundef nonnull align 4 dereferenceable(4) ptr @_ZN3gmx11BasicVectorIfEixEi(ptr noundef nonnull align 4 dereferenceable(12) %43, i32 noundef 2)
  %45 = load float, ptr %44, align 4
  %46 = fmul float %45, %42
  store float %46, ptr %44, align 4
  br label %47

47:                                               ; preds = %27
  %48 = call noundef nonnull align 8 dereferenceable(8) ptr @_ZN3gmx5boost14stl_interfaces2v118iterator_interfaceINS_12ArrayRefIterINS_11BasicVectorIfEEEESt26random_access_iterator_tagS6_RS6_PS6_lvEppIS7_EEDTcmpLclsr3stdE7declvalIRT_EEcvlLi1Eclsr3stdE7declvalISE_EEEv(ptr noundef nonnull align 1 dereferenceable(1) %7) #10
  br label %21

49:                                               ; preds = %21
  ret void
}