; Function Attrs: mustprogress nofree norecurse nosync nounwind memory(readwrite, inaccessiblemem: none) uwtable
define void @_ZNK3gmx16ScaleCoordinates4Impl5scaleENS_8ArrayRefINS_11BasicVectorIfEEEE(ptr nocapture noundef nonnull readonly align 4 dereferenceable(12) %0, ptr %1, ptr readnone %2) local_unnamed_addr #2 align 2 {
  %.not11 = icmp eq ptr %1, %2
  br i1 %.not11, label %._crit_edge, label %.lr.ph

.lr.ph:                                           ; preds = %3
  %4 = getelementptr inbounds i8, ptr %0, i64 4
  %5 = getelementptr inbounds i8, ptr %0, i64 8
  br label %6

6:                                                ; preds = %.lr.ph, %6
  %.sroa.0.012 = phi ptr [ %1, %.lr.ph ], [ %18, %6 ]
  %7 = load float, ptr %0, align 4
  %8 = load float, ptr %.sroa.0.012, align 4
  %9 = fmul float %7, %8
  store float %9, ptr %.sroa.0.012, align 4
  %10 = load float, ptr %4, align 4
  %11 = getelementptr inbounds i8, ptr %.sroa.0.012, i64 4
  %12 = load float, ptr %11, align 4
  %13 = fmul float %10, %12
  store float %13, ptr %11, align 4
  %14 = load float, ptr %5, align 4
  %15 = getelementptr inbounds i8, ptr %.sroa.0.012, i64 8
  %16 = load float, ptr %15, align 4
  %17 = fmul float %14, %16
  store float %17, ptr %15, align 4
  %18 = getelementptr inbounds i8, ptr %.sroa.0.012, i64 12
  %.not = icmp eq ptr %18, %2
  br i1 %.not, label %._crit_edge, label %6

._crit_edge:                                      ; preds = %6, %3
  ret void
}